; Function Attrs: nounwind uwtable
define void @Gia_IsoTestOld(ptr noundef %0, i32 noundef %1) local_unnamed_addr #8 {
  %3 = alloca %struct.timespec, align 8
  %4 = alloca %struct.timespec, align 8
  call void @llvm.lifetime.start.p0(i64 16, ptr nonnull %4) #26
  %5 = call i32 @clock_gettime(i32 noundef 1, ptr noundef nonnull %4) #26
  %6 = icmp slt i32 %5, 0
  br i1 %6, label %Abc_Clock.exit, label %7

7:                                                ; preds = %2
  %8 = load i64, ptr %4, align 8, !tbaa !63
  %.neg17 = mul i64 %8, -1000000
  %9 = getelementptr inbounds nuw i8, ptr %4, i64 8
  %10 = load i64, ptr %9, align 8, !tbaa !65
  %.neg = sdiv i64 %10, -1000
  %.neg18 = add i64 %.neg, %.neg17
  br label %Abc_Clock.exit

Abc_Clock.exit:                                   ; preds = %2, %7
  %.0.i.neg = phi i64 [ %.neg18, %7 ], [ 1, %2 ]
  call void @llvm.lifetime.end.p0(i64 16, ptr nonnull %4) #26
  %11 = call ptr @Gia_IsoDeriveEquivPos(ptr noundef %0, i32 noundef 0, i32 noundef %1)
  %12 = getelementptr i8, ptr %0, i64 16
  %.val8 = load i32, ptr %12, align 8, !tbaa !73
  %13 = getelementptr i8, ptr %0, i64 72
  %.val9 = load ptr, ptr %13, align 8, !tbaa !55
  %14 = getelementptr i8, ptr %.val9, i64 4
  %.val9.val = load i32, ptr %14, align 4, !tbaa !37
  %15 = sub nsw i32 %.val9.val, %.val8
  %.not = icmp eq ptr %11, null
  br i1 %.not, label %18, label %16

16:                                               ; preds = %Abc_Clock.exit
  %17 = getelementptr i8, ptr %11, i64 4
  %.val11 = load i32, ptr %17, align 4, !tbaa !69
  br label %18

18:                                               ; preds = %Abc_Clock.exit, %16
  %19 = phi i32 [ %.val11, %16 ], [ 1, %Abc_Clock.exit ]
  %20 = call i32 (ptr, ...) @printf(ptr noundef nonnull dereferenceable(1) @.str.31, i32 noundef %15, i32 noundef %19)
  call void @llvm.lifetime.start.p0(i64 16, ptr nonnull %3) #26
  %21 = call i32 @clock_gettime(i32 noundef 1, ptr noundef nonnull %3) #26
  %22 = icmp slt i32 %21, 0
  br i1 %22, label %Abc_Clock.exit13, label %23

23:                                               ; preds = %18
  %24 = load i64, ptr %3, align 8, !tbaa !63
  %25 = mul nsw i64 %24, 1000000
  %26 = getelementptr inbounds nuw i8, ptr %3, i64 8
  %27 = load i64, ptr %26, align 8, !tbaa !65
  %28 = sdiv i64 %27, 1000
  %29 = add nsw i64 %28, %25
  br label %Abc_Clock.exit13

Abc_Clock.exit13:                                 ; preds = %18, %23
  %.0.i12 = phi i64 [ %29, %23 ], [ -1, %18 ]
  call void @llvm.lifetime.end.p0(i64 16, ptr nonnull %3) #26
  %30 = add i64 %.0.i12, %.0.i.neg
  call void (i32, ptr, ...) @Abc_Print(i32 poison, ptr noundef nonnull @.str.16, ptr noundef nonnull @.str.25)
  %31 = sitofp i64 %30 to double
  %32 = fdiv double %31, 1.000000e+06
  call void (i32, ptr, ...) @Abc_Print(i32 poison, ptr noundef nonnull @.str.39, double noundef %32)
  %33 = icmp ne i32 %1, 0
  %34 = icmp ne ptr %11, null
  %or.cond = and i1 %33, %34
  br i1 %or.cond, label %35, label %40

35:                                               ; preds = %Abc_Clock.exit13
  %.val = load i32, ptr %12, align 8, !tbaa !73
  %.val7 = load ptr, ptr %13, align 8, !tbaa !55
  %36 = getelementptr i8, ptr %.val7, i64 4
  %.val7.val = load i32, ptr %36, align 4, !tbaa !37
  %37 = sub nsw i32 %.val7.val, %.val
  %38 = getelementptr i8, ptr %11, i64 4
  %.val10 = load i32, ptr %38, align 4, !tbaa !69
  %.not6 = icmp eq i32 %37, %.val10
  br i1 %.not6, label %.thread, label %39

39:                                               ; preds = %35
  %puts = call i32 @puts(ptr nonnull dereferenceable(1) @str.2)
  br label %.thread

40:                                               ; preds = %Abc_Clock.exit13
  br i1 %.not, label %Vec_VecFreeP.exit, label %..thread_crit_edge

..thread_crit_edge:                               ; preds = %40
  %.phi.trans.insert = getelementptr i8, ptr %11, i64 4
  %.val11.i.i.pre = load i32, ptr %.phi.trans.insert, align 4, !tbaa !128
  br label %.thread

.thread:                                          ; preds = %..thread_crit_edge, %35, %39
  %.val11.i.i = phi i32 [ %.val11.i.i.pre, %..thread_crit_edge ], [ %37, %35 ], [ %.val10, %39 ]
  %41 = icmp sgt i32 %.val11.i.i, 0
  %42 = getelementptr i8, ptr %11, i64 8
  %.val8.i.i = load ptr, ptr %42, align 8, !tbaa !74
  br i1 %41, label %.lr.ph.i.i, label %.critedge.i.i

.lr.ph.i.i:                                       ; preds = %.thread
  %43 = zext nneg i32 %.val11.i.i to i64
  br label %44

44:                                               ; preds = %51, %.lr.ph.i.i
  %indvars.iv.i.i = phi i64 [ 0, %.lr.ph.i.i ], [ %indvars.iv.next.i.i, %51 ]
  %45 = getelementptr inbounds nuw ptr, ptr %.val8.i.i, i64 %indvars.iv.i.i
  %46 = load ptr, ptr %45, align 8, !tbaa !74
  %.not.i.i = icmp eq ptr %46, null
  br i1 %.not.i.i, label %51, label %47

47:                                               ; preds = %44
  %48 = getelementptr inbounds nuw i8, ptr %46, i64 8
  %49 = load ptr, ptr %48, align 8, !tbaa !72
  %.not.i.i.i = icmp eq ptr %49, null
  br i1 %.not.i.i.i, label %Vec_PtrFree.exit.i.i, label %50

50:                                               ; preds = %47
  call void @free(ptr noundef nonnull %49) #26
  br label %Vec_PtrFree.exit.i.i

Vec_PtrFree.exit.i.i:                             ; preds = %50, %47
  call void @free(ptr noundef nonnull %46) #26
  br label %51

51:                                               ; preds = %Vec_PtrFree.exit.i.i, %44
  %indvars.iv.next.i.i = add nuw nsw i64 %indvars.iv.i.i, 1
  %exitcond.not = icmp eq i64 %indvars.iv.next.i.i, %43
  br i1 %exitcond.not, label %.critedge.i.i.thread, label %44, !llvm.loop !129

.critedge.i.i:                                    ; preds = %.thread
  %.not.i9.i.i = icmp eq ptr %.val8.i.i, null
  br i1 %.not.i9.i.i, label %Vec_VecFree.exit.i, label %.critedge.i.i.thread

.critedge.i.i.thread:                             ; preds = %51, %.critedge.i.i
  call void @free(ptr noundef nonnull %.val8.i.i) #26
  br label %Vec_VecFree.exit.i

Vec_VecFree.exit.i:                               ; preds = %.critedge.i.i.thread, %.critedge.i.i
  call void @free(ptr noundef nonnull %11) #26
  br label %Vec_VecFreeP.exit

Vec_VecFreeP.exit:                                ; preds = %40, %Vec_VecFree.exit.i
  ret void
}